; Function Attrs: nounwind uwtable
define void @lv_dropdown_close(ptr noundef %0) local_unnamed_addr #0 {
  tail call void @lv_obj_remove_state(ptr noundef %0, i16 noundef zeroext 1) #7
  %2 = getelementptr inbounds nuw i8, ptr %0, i64 108
  store i32 65535, ptr %2, align 4, !tbaa !17
  %3 = getelementptr inbounds nuw i8, ptr %0, i64 64
  %4 = load ptr, ptr %3, align 8, !tbaa !3
  tail call void @lv_obj_add_flag(ptr noundef %4, i32 noundef 1) #7
  %5 = tail call i32 @lv_obj_send_event(ptr noundef %0, i32 noundef 39, ptr noundef null) #7
  ret void
}